; ModuleID = '49/1226.c'
source_filename = "49/1226.c"
target datalayout = "e-m:e-p270:32:32-p271:32:32-p272:64:64-i64:64-f80:128-n8:16:32:64-S128"
target triple = "x86_64-pc-linux-gnu"

@s = common dso_local global [500 x i8] zeroinitializer, align 16

; Function Attrs: noinline nounwind uwtable
define dso_local i32 @substr(i8* %0, i32 %1, i32 %2) #0 {
  %4 = alloca i32, align 4
  %5 = alloca i8*, align 8
  %6 = alloca i32, align 4
  %7 = alloca i32, align 4
  store i8* %0, i8** %5, align 8
  store i32 %1, i32* %6, align 4
  store i32 %2, i32* %7, align 4
  br label %8

8:                                                ; preds = %28, %3
  %9 = load i32, i32* %7, align 4
  %10 = load i32, i32* %6, align 4
  %11 = icmp sgt i32 %9, %10
  br i1 %11, label %12, label %26

12:                                               ; preds = %8
  %13 = load i8*, i8** %5, align 8
  %14 = load i32, i32* %6, align 4
  %15 = sext i32 %14 to i64
  %16 = getelementptr inbounds i8, i8* %13, i64 %15
  %17 = load i8, i8* %16, align 1
  %18 = sext i8 %17 to i32
  %19 = load i8*, i8** %5, align 8
  %20 = load i32, i32* %7, align 4
  %21 = sext i32 %20 to i64
  %22 = getelementptr inbounds i8, i8* %19, i64 %21
  %23 = load i8, i8* %22, align 1
  %24 = sext i8 %23 to i32
  %25 = icmp eq i32 %18, %24
  br label %26

26:                                               ; preds = %12, %8
  %27 = phi i1 [ false, %8 ], [ %25, %12 ]
  br i1 %27, label %28, label %33

28:                                               ; preds = %26
  %29 = load i32, i32* %6, align 4
  %30 = add nsw i32 %29, 1
  store i32 %30, i32* %6, align 4
  %31 = load i32, i32* %7, align 4
  %32 = add nsw i32 %31, -1
  store i32 %32, i32* %7, align 4
  br label %8

33:                                               ; preds = %26
  %34 = load i32, i32* %7, align 4
  %35 = load i32, i32* %6, align 4
  %36 = icmp sgt i32 %34, %35
  br i1 %36, label %37, label %38

37:                                               ; preds = %33
  store i32 0, i32* %4, align 4
  br label %39

38:                                               ; preds = %33
  store i32 1, i32* %4, align 4
  br label %39

39:                                               ; preds = %38, %37
  %40 = load i32, i32* %4, align 4
  ret i32 %40
}

; Function Attrs: noinline nounwind uwtable
define dso_local void @osubstr(i8* %0, i32 %1, i32 %2) #0 {
  %4 = alloca i8*, align 8
  %5 = alloca i32, align 4
  %6 = alloca i32, align 4
  %7 = alloca i32, align 4
  store i8* %0, i8** %4, align 8
  store i32 %1, i32* %5, align 4
  store i32 %2, i32* %6, align 4
  %8 = load i32, i32* %5, align 4
  store i32 %8, i32* %7, align 4
  br label %9

9:                                                ; preds = %21, %3
  %10 = load i32, i32* %7, align 4
  %11 = load i32, i32* %6, align 4
  %12 = icmp sle i32 %10, %11
  br i1 %12, label %13, label %24

13:                                               ; preds = %9
  %14 = load i8*, i8** %4, align 8
  %15 = load i32, i32* %7, align 4
  %16 = sext i32 %15 to i64
  %17 = getelementptr inbounds i8, i8* %14, i64 %16
  %18 = load i8, i8* %17, align 1
  %19 = sext i8 %18 to i32
  %20 = call i32 @putchar(i32 %19)
  br label %21

21:                                               ; preds = %13
  %22 = load i32, i32* %7, align 4
  %23 = add nsw i32 %22, 1
  store i32 %23, i32* %7, align 4
  br label %9

24:                                               ; preds = %9
  %25 = call i32 @putchar(i32 10)
  ret void
}

declare dso_local i32 @putchar(i32) #1

; Function Attrs: noinline nounwind uwtable
define dso_local i32 @main() #0 {
  %1 = alloca i32, align 4
  %2 = alloca i32, align 4
  %3 = alloca i32, align 4
  %4 = alloca i32, align 4
  store i32 0, i32* %1, align 4
  %5 = call i32 (i8*, ...) bitcast (i32 (...)* @gets to i32 (i8*, ...)*)(i8* getelementptr inbounds ([500 x i8], [500 x i8]* @s, i64 0, i64 0))
  store i32 1, i32* %4, align 4
  br label %6

6:                                                ; preds = %37, %0
  %7 = load i32, i32* %4, align 4
  %8 = zext i32 %7 to i64
  %9 = call i64 @strlen(i8* getelementptr inbounds ([500 x i8], [500 x i8]* @s, i64 0, i64 0)) #3
  %10 = icmp ult i64 %8, %9
  br i1 %10, label %11, label %40

11:                                               ; preds = %6
  store i32 0, i32* %2, align 4
  br label %12

12:                                               ; preds = %33, %11
  %13 = load i32, i32* %2, align 4
  %14 = zext i32 %13 to i64
  %15 = call i64 @strlen(i8* getelementptr inbounds ([500 x i8], [500 x i8]* @s, i64 0, i64 0)) #3
  %16 = load i32, i32* %4, align 4
  %17 = zext i32 %16 to i64
  %18 = sub i64 %15, %17
  %19 = icmp ule i64 %14, %18
  br i1 %19, label %20, label %36

20:                                               ; preds = %12
  %21 = load i32, i32* %2, align 4
  %22 = load i32, i32* %2, align 4
  %23 = load i32, i32* %4, align 4
  %24 = add i32 %22, %23
  %25 = call i32 @substr(i8* getelementptr inbounds ([500 x i8], [500 x i8]* @s, i64 0, i64 0), i32 %21, i32 %24)
  %26 = icmp ne i32 %25, 0
  br i1 %26, label %27, label %32

27:                                               ; preds = %20
  %28 = load i32, i32* %2, align 4
  %29 = load i32, i32* %2, align 4
  %30 = load i32, i32* %4, align 4
  %31 = add i32 %29, %30
  call void @osubstr(i8* getelementptr inbounds ([500 x i8], [500 x i8]* @s, i64 0, i64 0), i32 %28, i32 %31)
  br label %32

32:                                               ; preds = %27, %20
  br label %33

33:                                               ; preds = %32
  %34 = load i32, i32* %2, align 4
  %35 = add i32 %34, 1
  store i32 %35, i32* %2, align 4
  br label %12

36:                                               ; preds = %12
  br label %37

37:                                               ; preds = %36
  %38 = load i32, i32* %4, align 4
  %39 = add i32 %38, 1
  store i32 %39, i32* %4, align 4
  br label %6

40:                                               ; preds = %6
  %41 = load i32, i32* %1, align 4
  ret i32 %41
}

declare dso_local i32 @gets(...) #1

; Function Attrs: nounwind readonly
declare dso_local i64 @strlen(i8*) #2


!llvm.module.flags = !{!0}
!llvm.ident = !{!1}

!0 = !{i32 1, !"wchar_size", i32 4}
!1 = !{!"clang version 10.0.0-4ubuntu1 "}
